target datalayout = "e-m:e-p270:32:32-p271:32:32-p272:64:64-i64:64-i128:128-f80:128-n8:16:32:64-S128"
target triple = "x86_64-pc-linux-gnu"

%"class.clang::interp::Block" = type { i32, ptr, %"class.std::optional", i8, i8, i8, i8, i8, ptr }
%"class.std::optional" = type { %"struct.std::_Optional_base" }
%"struct.std::_Optional_base" = type { %"struct.std::_Optional_payload" }
%"struct.std::_Optional_payload" = type { %"struct.std::_Optional_payload_base.base", [3 x i8] }
%"struct.std::_Optional_payload_base.base" = type <{ %"union.std::_Optional_payload_base<unsigned int>::_Storage", i8 }>
%"union.std::_Optional_payload_base<unsigned int>::_Storage" = type { i32 }
%"struct.clang::interp::Descriptor" = type { %"class.llvm::PointerUnion", i32, i32, i32, i32, ptr, ptr, %"class.std::optional.2", i8, i8, i8, i8, i8, ptr, ptr, ptr }
%"class.llvm::PointerUnion" = type { %"class.llvm::pointer_union_detail::PointerUnionMembers" }
%"class.llvm::pointer_union_detail::PointerUnionMembers" = type { %"class.llvm::pointer_union_detail::PointerUnionMembers.0" }
%"class.llvm::pointer_union_detail::PointerUnionMembers.0" = type { %"class.llvm::pointer_union_detail::PointerUnionMembers.1" }
%"class.llvm::pointer_union_detail::PointerUnionMembers.1" = type { %"class.llvm::PointerIntPair" }
%"class.llvm::PointerIntPair" = type { %"struct.llvm::detail::PunnedPointer" }
%"struct.llvm::detail::PunnedPointer" = type { [8 x i8] }
%"class.std::optional.2" = type { %"struct.std::_Optional_base.3" }
%"struct.std::_Optional_base.3" = type { %"struct.std::_Optional_payload.5" }
%"struct.std::_Optional_payload.5" = type { %"struct.std::_Optional_payload_base.base.7", [3 x i8] }
%"struct.std::_Optional_payload_base.base.7" = type <{ %"union.std::_Optional_payload_base<clang::interp::PrimType>::_Storage", i8 }>
%"union.std::_Optional_payload_base<clang::interp::PrimType>::_Storage" = type { i32 }
%"struct.clang::interp::BlockPointer" = type { ptr, i32 }
%"class.clang::interp::Pointer" = type <{ i64, ptr, ptr, %union.anon, i32, [4 x i8] }>
%union.anon = type { %"struct.clang::interp::BlockPointer", [8 x i8] }
%"struct.clang::interp::IntPointer" = type { ptr, i64 }
%"struct.clang::interp::InlineDescriptor" = type { i32, i8, ptr }
%"class.clang::interp::FunctionPointer" = type <{ ptr, i64, i8, [7 x i8] }>

; Function Attrs: mustprogress nounwind uwtable
define linkonce_odr hidden noundef ptr @_ZN5clang6interp5Block7rawDataEv(ptr noundef nonnull align 8 dereferenceable(40) %0) #0 comdat align 2 {
  %2 = alloca ptr, align 8
  store ptr %0, ptr %2, align 8
  %3 = load ptr, ptr %2, align 8
  %4 = getelementptr inbounds i8, ptr %3, i64 40
  ret ptr %4
}

; Function Attrs: mustprogress nounwind uwtable
define linkonce_odr hidden noundef zeroext i1 @_ZNK5clang6interp15FunctionPointer6isZeroEv(ptr noundef nonnull align 8 dereferenceable(24) %0) #0 comdat align 2 {
  %2 = alloca ptr, align 8
  store ptr %0, ptr %2, align 8
  %3 = load ptr, ptr %2, align 8
  %4 = getelementptr inbounds nuw %"class.clang::interp::FunctionPointer", ptr %3, i32 0, i32 0
  %5 = load ptr, ptr %4, align 8
  %6 = icmp ne ptr %5, null
  %7 = xor i1 %6, true
  ret i1 %7
}

; Function Attrs: mustprogress nounwind uwtable
define linkonce_odr hidden noundef nonnull align 8 dereferenceable(24) ptr @_ZNK5clang6interp7Pointer17asFunctionPointerEv(ptr noundef nonnull align 8 dereferenceable(52) %0) #0 comdat align 2 {
  %2 = alloca ptr, align 8
  store ptr %0, ptr %2, align 8
  %3 = load ptr, ptr %2, align 8
  %4 = getelementptr inbounds nuw %"class.clang::interp::Pointer", ptr %3, i32 0, i32 3
  ret ptr %4
}

; Function Attrs: mustprogress nounwind uwtable
define linkonce_odr hidden noundef zeroext i1 @_ZNK5clang6interp7Pointer14isBlockPointerEv(ptr noundef nonnull align 8 dereferenceable(52) %0) #0 comdat align 2 {
  %2 = alloca ptr, align 8
  store ptr %0, ptr %2, align 8
  %3 = load ptr, ptr %2, align 8
  %4 = getelementptr inbounds nuw %"class.clang::interp::Pointer", ptr %3, i32 0, i32 4
  %5 = load i32, ptr %4, align 8
  %6 = icmp eq i32 %5, 0
  ret i1 %6
}

; Function Attrs: mustprogress nounwind uwtable
define linkonce_odr hidden noundef ptr @_ZNK5clang6interp7Pointer13getDescriptorEj(ptr noundef nonnull align 8 dereferenceable(52) %0, i32 noundef %1) #0 comdat align 2 {
  %3 = alloca ptr, align 8
  %4 = alloca i32, align 4
  store ptr %0, ptr %3, align 8
  store i32 %1, ptr %4, align 4
  %5 = load ptr, ptr %3, align 8
  %6 = call noundef nonnull align 8 dereferenceable(16) ptr @_ZNK5clang6interp7Pointer14asBlockPointerEv(ptr noundef nonnull align 8 dereferenceable(52) %5)
  %7 = getelementptr inbounds nuw %"struct.clang::interp::BlockPointer", ptr %6, i32 0, i32 0
  %8 = load ptr, ptr %7, align 8
  %9 = call noundef ptr @_ZN5clang6interp5Block7rawDataEv(ptr noundef nonnull align 8 dereferenceable(40) %8)
  %10 = load i32, ptr %4, align 4
  %11 = zext i32 %10 to i64
  %12 = getelementptr inbounds i8, ptr %9, i64 %11
  %13 = getelementptr inbounds %"struct.clang::interp::InlineDescriptor", ptr %12, i64 -1
  ret ptr %13
}

; Function Attrs: mustprogress nounwind uwtable
define linkonce_odr hidden noundef zeroext i1 @_ZNK5clang6interp7Pointer17isFunctionPointerEv(ptr noundef nonnull align 8 dereferenceable(52) %0) #0 comdat align 2 {
  %2 = alloca ptr, align 8
  store ptr %0, ptr %2, align 8
  %3 = load ptr, ptr %2, align 8
  %4 = getelementptr inbounds nuw %"class.clang::interp::Pointer", ptr %3, i32 0, i32 4
  %5 = load i32, ptr %4, align 8
  %6 = icmp eq i32 %5, 2
  ret i1 %6
}

; Function Attrs: mustprogress nounwind uwtable
define linkonce_odr hidden noundef i32 @_ZNK5clang6interp10Descriptor15getMetadataSizeEv(ptr noundef nonnull align 8 dereferenceable(80) %0) #0 comdat align 2 {
  %2 = alloca ptr, align 8
  store ptr %0, ptr %2, align 8
  %3 = load ptr, ptr %2, align 8
  %4 = getelementptr inbounds nuw %"struct.clang::interp::Descriptor", ptr %3, i32 0, i32 3
  %5 = load i32, ptr %4, align 8
  ret i32 %5
}

; Function Attrs: mustprogress nounwind uwtable
define linkonce_odr hidden noundef ptr @_ZNK5clang6interp5Block13getDescriptorEv(ptr noundef nonnull align 8 dereferenceable(40) %0) #0 comdat align 2 {
  %2 = alloca ptr, align 8
  store ptr %0, ptr %2, align 8
  %3 = load ptr, ptr %2, align 8
  %4 = getelementptr inbounds nuw %"class.clang::interp::Block", ptr %3, i32 0, i32 8
  %5 = load ptr, ptr %4, align 8
  ret ptr %5
}

; Function Attrs: mustprogress nounwind uwtable
define linkonce_odr hidden noundef nonnull align 8 dereferenceable(16) ptr @_ZNK5clang6interp7Pointer14asBlockPointerEv(ptr noundef nonnull align 8 dereferenceable(52) %0) #0 comdat align 2 {
  %2 = alloca ptr, align 8
  store ptr %0, ptr %2, align 8
  %3 = load ptr, ptr %2, align 8
  %4 = getelementptr inbounds nuw %"class.clang::interp::Pointer", ptr %3, i32 0, i32 3
  ret ptr %4
}

; Function Attrs: mustprogress nounwind uwtable
define linkonce_odr hidden noundef zeroext i1 @_ZNK5clang6interp7Pointer6isZeroEv(ptr noundef nonnull align 8 dereferenceable(52) %0) #0 comdat align 2 {
  %2 = alloca i1, align 1
  %3 = alloca ptr, align 8
  store ptr %0, ptr %3, align 8
  %4 = load ptr, ptr %3, align 8
  %5 = call noundef zeroext i1 @_ZNK5clang6interp7Pointer14isBlockPointerEv(ptr noundef nonnull align 8 dereferenceable(52) %4)
  br i1 %5, label %6, label %11

6:                                                ; preds = %1
  %7 = call noundef nonnull align 8 dereferenceable(16) ptr @_ZNK5clang6interp7Pointer14asBlockPointerEv(ptr noundef nonnull align 8 dereferenceable(52) %4)
  %8 = getelementptr inbounds nuw %"struct.clang::interp::BlockPointer", ptr %7, i32 0, i32 0
  %9 = load ptr, ptr %8, align 8
  %10 = icmp eq ptr %9, null
  store i1 %10, ptr %2, align 1
  br label %27

11:                                               ; preds = %1
  %12 = call noundef zeroext i1 @_ZNK5clang6interp7Pointer17isFunctionPointerEv(ptr noundef nonnull align 8 dereferenceable(52) %4)
  br i1 %12, label %13, label %16

13:                                               ; preds = %11
  %14 = call noundef nonnull align 8 dereferenceable(24) ptr @_ZNK5clang6interp7Pointer17asFunctionPointerEv(ptr noundef nonnull align 8 dereferenceable(52) %4)
  %15 = call noundef zeroext i1 @_ZNK5clang6interp15FunctionPointer6isZeroEv(ptr noundef nonnull align 8 dereferenceable(24) %14)
  store i1 %15, ptr %2, align 1
  br label %27

16:                                               ; preds = %11
  %17 = call noundef nonnull align 8 dereferenceable(16) ptr @_ZNK5clang6interp7Pointer12asIntPointerEv(ptr noundef nonnull align 8 dereferenceable(52) %4)
  %18 = getelementptr inbounds nuw %"struct.clang::interp::IntPointer", ptr %17, i32 0, i32 1
  %19 = load i64, ptr %18, align 8
  %20 = icmp eq i64 %19, 0
  br i1 %20, label %21, label %25

21:                                               ; preds = %16
  %22 = getelementptr inbounds nuw %"class.clang::interp::Pointer", ptr %4, i32 0, i32 0
  %23 = load i64, ptr %22, align 8
  %24 = icmp eq i64 %23, 0
  br label %25

25:                                               ; preds = %21, %16
  %26 = phi i1 [ false, %16 ], [ %24, %21 ]
  store i1 %26, ptr %2, align 1
  br label %27

27:                                               ; preds = %25, %13, %6
  %28 = load i1, ptr %2, align 1
  ret i1 %28
}

; Function Attrs: mustprogress nounwind uwtable
define linkonce_odr hidden noundef ptr @_ZNK5clang6interp7Pointer13getInlineDescEv(ptr noundef nonnull align 8 dereferenceable(52) %0) #0 comdat align 2 {
  %2 = alloca ptr, align 8
  store ptr %0, ptr %2, align 8
  %3 = load ptr, ptr %2, align 8
  %4 = call noundef nonnull align 8 dereferenceable(16) ptr @_ZNK5clang6interp7Pointer14asBlockPointerEv(ptr noundef nonnull align 8 dereferenceable(52) %3)
  %5 = getelementptr inbounds nuw %"struct.clang::interp::BlockPointer", ptr %4, i32 0, i32 1
  %6 = load i32, ptr %5, align 8
  %7 = call noundef ptr @_ZNK5clang6interp7Pointer13getDescriptorEj(ptr noundef nonnull align 8 dereferenceable(52) %3, i32 noundef %6)
  ret ptr %7
}

; Function Attrs: mustprogress nounwind uwtable
define linkonce_odr hidden noundef ptr @_ZNK5clang6interp7Pointer11getDeclDescEv(ptr noundef nonnull align 8 dereferenceable(52) %0) #0 comdat align 2 {
  %2 = alloca ptr, align 8
  %3 = alloca ptr, align 8
  store ptr %0, ptr %3, align 8
  %4 = load ptr, ptr %3, align 8
  %5 = call noundef zeroext i1 @_ZNK5clang6interp7Pointer17isIntegralPointerEv(ptr noundef nonnull align 8 dereferenceable(52) %4)
  br i1 %5, label %6, label %10

6:                                                ; preds = %1
  %7 = call noundef nonnull align 8 dereferenceable(16) ptr @_ZNK5clang6interp7Pointer12asIntPointerEv(ptr noundef nonnull align 8 dereferenceable(52) %4)
  %8 = getelementptr inbounds nuw %"struct.clang::interp::IntPointer", ptr %7, i32 0, i32 0
  %9 = load ptr, ptr %8, align 8
  store ptr %9, ptr %2, align 8
  br label %19

10:                                               ; preds = %1
  %11 = call noundef zeroext i1 @_ZNK5clang6interp7Pointer17isFunctionPointerEv(ptr noundef nonnull align 8 dereferenceable(52) %4)
  br i1 %11, label %12, label %13

12:                                               ; preds = %10
  store ptr null, ptr %2, align 8
  br label %19

13:                                               ; preds = %10
  %14 = call noundef nonnull align 8 dereferenceable(16) ptr @_ZNK5clang6interp7Pointer14asBlockPointerEv(ptr noundef nonnull align 8 dereferenceable(52) %4)
  %15 = getelementptr inbounds nuw %"struct.clang::interp::BlockPointer", ptr %14, i32 0, i32 0
  %16 = load ptr, ptr %15, align 8
  %17 = getelementptr inbounds nuw %"class.clang::interp::Block", ptr %16, i32 0, i32 8
  %18 = load ptr, ptr %17, align 8
  store ptr %18, ptr %2, align 8
  br label %19

19:                                               ; preds = %13, %12, %6
  %20 = load ptr, ptr %2, align 8
  ret ptr %20
}

; Function Attrs: mustprogress nounwind uwtable
define linkonce_odr hidden noundef zeroext i1 @_ZNK5clang6interp7Pointer6isRootEv(ptr noundef nonnull align 8 dereferenceable(52) %0) #0 comdat align 2 {
  %2 = alloca i1, align 1
  %3 = alloca ptr, align 8
  store ptr %0, ptr %3, align 8
  %4 = load ptr, ptr %3, align 8
  %5 = call noundef zeroext i1 @_ZNK5clang6interp7Pointer6isZeroEv(ptr noundef nonnull align 8 dereferenceable(52) %4)
  br i1 %5, label %8, label %6

6:                                                ; preds = %1
  %7 = call noundef zeroext i1 @_ZNK5clang6interp7Pointer17isIntegralPointerEv(ptr noundef nonnull align 8 dereferenceable(52) %4)
  br i1 %7, label %8, label %9

8:                                                ; preds = %6, %1
  store i1 true, ptr %2, align 1
  br label %26

9:                                                ; preds = %6
  %10 = call noundef nonnull align 8 dereferenceable(16) ptr @_ZNK5clang6interp7Pointer14asBlockPointerEv(ptr noundef nonnull align 8 dereferenceable(52) %4)
  %11 = getelementptr inbounds nuw %"struct.clang::interp::BlockPointer", ptr %10, i32 0, i32 1
  %12 = load i32, ptr %11, align 8
  %13 = call noundef nonnull align 8 dereferenceable(16) ptr @_ZNK5clang6interp7Pointer14asBlockPointerEv(ptr noundef nonnull align 8 dereferenceable(52) %4)
  %14 = getelementptr inbounds nuw %"struct.clang::interp::BlockPointer", ptr %13, i32 0, i32 0
  %15 = load ptr, ptr %14, align 8
  %16 = call noundef ptr @_ZNK5clang6interp5Block13getDescriptorEv(ptr noundef nonnull align 8 dereferenceable(40) %15)
  %17 = call noundef i32 @_ZNK5clang6interp10Descriptor15getMetadataSizeEv(ptr noundef nonnull align 8 dereferenceable(80) %16)
  %18 = icmp eq i32 %12, %17
  br i1 %18, label %24, label %19

19:                                               ; preds = %9
  %20 = call noundef nonnull align 8 dereferenceable(16) ptr @_ZNK5clang6interp7Pointer14asBlockPointerEv(ptr noundef nonnull align 8 dereferenceable(52) %4)
  %21 = getelementptr inbounds nuw %"struct.clang::interp::BlockPointer", ptr %20, i32 0, i32 1
  %22 = load i32, ptr %21, align 8
  %23 = icmp eq i32 %22, 0
  br label %24

24:                                               ; preds = %19, %9
  %25 = phi i1 [ true, %9 ], [ %23, %19 ]
  store i1 %25, ptr %2, align 1
  br label %26

26:                                               ; preds = %24, %8
  %27 = load i1, ptr %2, align 1
  ret i1 %27
}

; Function Attrs: mustprogress nounwind uwtable
define linkonce_odr hidden noundef nonnull align 8 dereferenceable(16) ptr @_ZNK5clang6interp7Pointer12asIntPointerEv(ptr noundef nonnull align 8 dereferenceable(52) %0) #0 comdat align 2 {
  %2 = alloca ptr, align 8
  store ptr %0, ptr %2, align 8
  %3 = load ptr, ptr %2, align 8
  %4 = getelementptr inbounds nuw %"class.clang::interp::Pointer", ptr %3, i32 0, i32 3
  ret ptr %4
}

; Function Attrs: mustprogress nounwind uwtable
define linkonce_odr hidden noundef zeroext i1 @_ZNK5clang6interp7Pointer17isIntegralPointerEv(ptr noundef nonnull align 8 dereferenceable(52) %0) #0 comdat align 2 {
  %2 = alloca ptr, align 8
  store ptr %0, ptr %2, align 8
  %3 = load ptr, ptr %2, align 8
  %4 = getelementptr inbounds nuw %"class.clang::interp::Pointer", ptr %3, i32 0, i32 4
  %5 = load i32, ptr %4, align 8
  %6 = icmp eq i32 %5, 1
  ret i1 %6
}

; Function Attrs: mustprogress nounwind uwtable
define linkonce_odr hidden noundef ptr @_ZNK5clang6interp7Pointer12getFieldDescEv(ptr noundef nonnull align 8 dereferenceable(52) %0) #0 comdat align 2 {
  %2 = alloca ptr, align 8
  %3 = alloca ptr, align 8
  store ptr %0, ptr %3, align 8
  %4 = load ptr, ptr %3, align 8
  %5 = call noundef zeroext i1 @_ZNK5clang6interp7Pointer17isIntegralPointerEv(ptr noundef nonnull align 8 dereferenceable(52) %4)
  br i1 %5, label %6, label %10

6:                                                ; preds = %1
  %7 = call noundef nonnull align 8 dereferenceable(16) ptr @_ZNK5clang6interp7Pointer12asIntPointerEv(ptr noundef nonnull align 8 dereferenceable(52) %4)
  %8 = getelementptr inbounds nuw %"struct.clang::interp::IntPointer", ptr %7, i32 0, i32 0
  %9 = load ptr, ptr %8, align 8
  store ptr %9, ptr %2, align 8
  br label %18

10:                                               ; preds = %1
  %11 = call noundef zeroext i1 @_ZNK5clang6interp7Pointer6isRootEv(ptr noundef nonnull align 8 dereferenceable(52) %4)
  br i1 %11, label %12, label %14

12:                                               ; preds = %10
  %13 = call noundef ptr @_ZNK5clang6interp7Pointer11getDeclDescEv(ptr noundef nonnull align 8 dereferenceable(52) %4)
  store ptr %13, ptr %2, align 8
  br label %18

14:                                               ; preds = %10
  %15 = call noundef ptr @_ZNK5clang6interp7Pointer13getInlineDescEv(ptr noundef nonnull align 8 dereferenceable(52) %4)
  %16 = getelementptr inbounds nuw %"struct.clang::interp::InlineDescriptor", ptr %15, i32 0, i32 2
  %17 = load ptr, ptr %16, align 8
  store ptr %17, ptr %2, align 8
  br label %18

18:                                               ; preds = %14, %12, %6
  %19 = load ptr, ptr %2, align 8
  ret ptr %19
}

; Function Attrs: mustprogress nounwind uwtable
define dso_local noundef zeroext i1 @_ZN5clang6interp7Pointer12hasSameArrayERKS1_S3_(ptr noundef nonnull align 8 dereferenceable(52) %0, ptr noundef nonnull align 8 dereferenceable(52) %1) #0 align 2 {
  %3 = alloca ptr, align 8
  %4 = alloca ptr, align 8
  store ptr %0, ptr %3, align 8
  store ptr %1, ptr %4, align 8
  %5 = load ptr, ptr %3, align 8
  %6 = load ptr, ptr %4, align 8
  %7 = call noundef zeroext i1 @_ZN5clang6interp7Pointer11hasSameBaseERKS1_S3_(ptr noundef nonnull align 8 dereferenceable(52) %5, ptr noundef nonnull align 8 dereferenceable(52) %6)
  br i1 %7, label %8, label %24

8:                                                ; preds = %2
  %9 = load ptr, ptr %3, align 8
  %10 = getelementptr inbounds nuw %"class.clang::interp::Pointer", ptr %9, i32 0, i32 3
  %11 = getelementptr inbounds nuw %"struct.clang::interp::BlockPointer", ptr %10, i32 0, i32 1
  %12 = load i32, ptr %11, align 8
  %13 = load ptr, ptr %4, align 8
  %14 = getelementptr inbounds nuw %"class.clang::interp::Pointer", ptr %13, i32 0, i32 3
  %15 = getelementptr inbounds nuw %"struct.clang::interp::BlockPointer", ptr %14, i32 0, i32 1
  %16 = load i32, ptr %15, align 8
  %17 = icmp eq i32 %12, %16
  br i1 %17, label %18, label %24

18:                                               ; preds = %8
  %19 = load ptr, ptr %3, align 8
  %20 = call noundef ptr @_ZNK5clang6interp7Pointer12getFieldDescEv(ptr noundef nonnull align 8 dereferenceable(52) %19)
  %21 = getelementptr inbounds nuw %"struct.clang::interp::Descriptor", ptr %20, i32 0, i32 11
  %22 = load i8, ptr %21, align 1
  %23 = trunc i8 %22 to i1
  br label %24

24:                                               ; preds = %18, %8, %2
  %25 = phi i1 [ false, %8 ], [ false, %2 ], [ %23, %18 ]
  ret i1 %25
}