; Function Attrs: mustprogress nofree norecurse nosync nounwind willreturn memory(read, inaccessiblemem: write) uwtable
define dso_local noundef zeroext i1 @_ZN5clang6interp7Pointer12hasSameArrayERKS1_S3_(ptr nocapture noundef nonnull readonly align 8 dereferenceable(52) %0, ptr nocapture noundef nonnull readonly align 8 dereferenceable(52) %1) local_unnamed_addr #7 align 2 {
  %3 = tail call noundef zeroext i1 @_ZN5clang6interp7Pointer11hasSameBaseERKS1_S3_(ptr noundef nonnull align 8 dereferenceable(52) %0, ptr noundef nonnull align 8 dereferenceable(52) %1)
  br i1 %3, label %4, label %45

4:                                                ; preds = %2
  %5 = getelementptr inbounds i8, ptr %0, i64 32
  %6 = load i32, ptr %5, align 8
  %7 = getelementptr inbounds i8, ptr %1, i64 32
  %8 = load i32, ptr %7, align 8
  %9 = icmp eq i32 %6, %8
  br i1 %9, label %10, label %45

10:                                               ; preds = %4
  %11 = getelementptr inbounds nuw i8, ptr %0, i64 48
  %12 = load i32, ptr %11, align 8
  switch i32 %12, label %_ZNK5clang6interp7Pointer6isZeroEv.exit.i.i [
    i32 1, label %13
    i32 0, label %15
    i32 2, label %19
  ]

13:                                               ; preds = %10
  %14 = getelementptr inbounds nuw i8, ptr %0, i64 24
  br label %_ZNK5clang6interp7Pointer11getDeclDescEv.exit.sink.split.i

15:                                               ; preds = %10
  %16 = getelementptr inbounds nuw i8, ptr %0, i64 24
  %17 = load ptr, ptr %16, align 8
  %18 = icmp eq ptr %17, null
  br i1 %18, label %_ZNK5clang6interp7Pointer6isRootEv.exit.thread.thread.i, label %_ZNK5clang6interp7Pointer6isRootEv.exit.i

19:                                               ; preds = %10
  %20 = getelementptr inbounds nuw i8, ptr %0, i64 24
  %21 = load ptr, ptr %20, align 8, !nonnull !4, !noundef !4
  br label %_ZNK5clang6interp7Pointer6isRootEv.exit.i

_ZNK5clang6interp7Pointer6isZeroEv.exit.i.i:      ; preds = %10
  %22 = load i64, ptr %5, align 8
  %23 = icmp eq i64 %22, 0
  %24 = load i64, ptr %0, align 8
  %25 = icmp eq i64 %24, 0
  %26 = select i1 %23, i1 %25, i1 false
  %.phi.trans.insert.i.phi.trans.insert = getelementptr inbounds nuw i8, ptr %0, i64 24
  %.pre.i.pre = load ptr, ptr %.phi.trans.insert.i.phi.trans.insert, align 8
  br i1 %26, label %_ZNK5clang6interp7Pointer6isRootEv.exit.thread.i, label %_ZNK5clang6interp7Pointer6isRootEv.exit.i

_ZNK5clang6interp7Pointer6isRootEv.exit.i:        ; preds = %_ZNK5clang6interp7Pointer6isZeroEv.exit.i.i, %19, %15
  %27 = phi ptr [ %17, %15 ], [ %21, %19 ], [ %.pre.i.pre, %_ZNK5clang6interp7Pointer6isZeroEv.exit.i.i ]
  %28 = getelementptr inbounds nuw i8, ptr %27, i64 32
  %29 = load ptr, ptr %28, align 8
  %30 = getelementptr inbounds nuw i8, ptr %29, i64 16
  %31 = load i32, ptr %30, align 8
  %32 = icmp eq i32 %6, %31
  %33 = icmp eq i32 %6, 0
  %spec.select.i.i = or i1 %33, %32
  br i1 %spec.select.i.i, label %_ZNK5clang6interp7Pointer6isRootEv.exit.thread.i, label %36

_ZNK5clang6interp7Pointer6isRootEv.exit.thread.i: ; preds = %_ZNK5clang6interp7Pointer6isZeroEv.exit.i.i, %_ZNK5clang6interp7Pointer6isRootEv.exit.i
  %.pre.i = phi ptr [ %27, %_ZNK5clang6interp7Pointer6isRootEv.exit.i ], [ %.pre.i.pre, %_ZNK5clang6interp7Pointer6isZeroEv.exit.i.i ]
  %cond = icmp ne i32 %12, 2
  tail call void @llvm.assume(i1 %cond)
  br label %_ZNK5clang6interp7Pointer6isRootEv.exit.thread.thread.i

_ZNK5clang6interp7Pointer6isRootEv.exit.thread.thread.i: ; preds = %_ZNK5clang6interp7Pointer6isRootEv.exit.thread.i, %15
  %34 = phi ptr [ %.pre.i, %_ZNK5clang6interp7Pointer6isRootEv.exit.thread.i ], [ null, %15 ]
  %35 = getelementptr inbounds nuw i8, ptr %34, i64 32
  br label %_ZNK5clang6interp7Pointer11getDeclDescEv.exit.sink.split.i

36:                                               ; preds = %_ZNK5clang6interp7Pointer6isRootEv.exit.i
  %37 = getelementptr inbounds i8, ptr %27, i64 40
  %38 = zext i32 %6 to i64
  %39 = getelementptr inbounds i8, ptr %37, i64 %38
  %40 = getelementptr inbounds i8, ptr %39, i64 -8
  br label %_ZNK5clang6interp7Pointer11getDeclDescEv.exit.sink.split.i

_ZNK5clang6interp7Pointer11getDeclDescEv.exit.sink.split.i: ; preds = %36, %_ZNK5clang6interp7Pointer6isRootEv.exit.thread.thread.i, %13
  %.sink.i.sink.i = phi ptr [ %40, %36 ], [ %14, %13 ], [ %35, %_ZNK5clang6interp7Pointer6isRootEv.exit.thread.thread.i ]
  %41 = load ptr, ptr %.sink.i.sink.i, align 8
  %42 = getelementptr inbounds nuw i8, ptr %41, i64 51
  %43 = load i8, ptr %42, align 1
  %44 = trunc i8 %43 to i1
  br label %45

45:                                               ; preds = %_ZNK5clang6interp7Pointer11getDeclDescEv.exit.sink.split.i, %4, %2
  %46 = phi i1 [ false, %4 ], [ false, %2 ], [ %44, %_ZNK5clang6interp7Pointer11getDeclDescEv.exit.sink.split.i ]
  ret i1 %46
}